; Function Attrs: mustprogress uwtable
define void @_ZNK3nix11BaseSettingINS_11SandboxModeEE9to_stringB5cxx11Ev(ptr dead_on_unwind noalias writable sret(%"class.std::__cxx11::basic_string") align 8 %0, ptr nocapture noundef nonnull readonly align 8 dereferenceable(145) %1) unnamed_addr #5 align 2 personality ptr @__gxx_personality_v0 {
  %3 = alloca %"class.std::allocator.5", align 1
  %4 = alloca %"class.std::allocator.5", align 1
  %5 = alloca %"class.std::allocator.5", align 1
  %6 = getelementptr inbounds i8, ptr %1, i64 136
  %7 = load i32, ptr %6, align 8
  switch i32 %7, label %17 [
    i32 0, label %8
    i32 1, label %11
    i32 2, label %14
  ]

8:                                                ; preds = %2
  call void @_ZNSaIcEC1Ev(ptr noundef nonnull align 1 dereferenceable(1) %3) #28
  invoke void @_ZNSt7__cxx1112basic_stringIcSt11char_traitsIcESaIcEEC2IS3_EEPKcRKS3_(ptr noundef nonnull align 8 dereferenceable(32) %0, ptr noundef nonnull @.str.230, ptr noundef nonnull align 1 dereferenceable(1) %3)
          to label %18 unwind label %9

9:                                                ; preds = %8
  %10 = landingpad { ptr, i32 }
          cleanup
  br label %19

11:                                               ; preds = %2
  call void @_ZNSaIcEC1Ev(ptr noundef nonnull align 1 dereferenceable(1) %4) #28
  invoke void @_ZNSt7__cxx1112basic_stringIcSt11char_traitsIcESaIcEEC2IS3_EEPKcRKS3_(ptr noundef nonnull align 8 dereferenceable(32) %0, ptr noundef nonnull @.str.231, ptr noundef nonnull align 1 dereferenceable(1) %4)
          to label %18 unwind label %12

12:                                               ; preds = %11
  %13 = landingpad { ptr, i32 }
          cleanup
  br label %19

14:                                               ; preds = %2
  call void @_ZNSaIcEC1Ev(ptr noundef nonnull align 1 dereferenceable(1) %5) #28
  invoke void @_ZNSt7__cxx1112basic_stringIcSt11char_traitsIcESaIcEEC2IS3_EEPKcRKS3_(ptr noundef nonnull align 8 dereferenceable(32) %0, ptr noundef nonnull @.str.232, ptr noundef nonnull align 1 dereferenceable(1) %5)
          to label %18 unwind label %15

15:                                               ; preds = %14
  %16 = landingpad { ptr, i32 }
          cleanup
  br label %19

17:                                               ; preds = %2
  tail call void @abort() #30
  unreachable

18:                                               ; preds = %14, %11, %8
  %.sink = phi ptr [ %3, %8 ], [ %4, %11 ], [ %5, %14 ]
  call void @_ZNSaIcED1Ev(ptr noundef nonnull align 1 dereferenceable(1) %.sink) #28
  ret void

19:                                               ; preds = %15, %12, %9
  %.sink5 = phi ptr [ %5, %15 ], [ %4, %12 ], [ %3, %9 ]
  %.pn = phi { ptr, i32 } [ %16, %15 ], [ %13, %12 ], [ %10, %9 ]
  call void @_ZNSaIcED1Ev(ptr noundef nonnull align 1 dereferenceable(1) %.sink5) #28
  resume { ptr, i32 } %.pn
}